; Function Attrs: mustprogress nofree norecurse nosync nounwind willreturn memory(argmem: readwrite) uwtable
define dso_local void @_ZN17cmQtAutoGenerator6Logger14RaiseVerbosityEj(ptr nocapture noundef nonnull align 8 dereferenceable(45) %0, i32 noundef %1) local_unnamed_addr #5 align 2 {
  %3 = getelementptr inbounds i8, ptr %0, i64 40
  %4 = load i32, ptr %3, align 8
  %5 = icmp ult i32 %4, %1
  br i1 %5, label %6, label %7

6:                                                ; preds = %2
  store i32 %1, ptr %3, align 8
  br label %7

7:                                                ; preds = %6, %2
  ret void
}